; ModuleID = '39/776.c'
source_filename = "39/776.c"
target datalayout = "e-m:e-p270:32:32-p271:32:32-p272:64:64-i64:64-f80:128-n8:16:32:64-S128"
target triple = "x86_64-pc-linux-gnu"

%struct.stu = type { [21 x i8], [2 x i32], i8, i8, i32, i32 }

@.str = private unnamed_addr constant [3 x i8] c"%d\00", align 1
@.str.1 = private unnamed_addr constant [16 x i8] c"%s %d%d %c %c%d\00", align 1
@.str.2 = private unnamed_addr constant [10 x i8] c"%s\0A%d\0A%d\0A\00", align 1

; Function Attrs: noinline nounwind uwtable
define dso_local i32 @main() #0 {
  %1 = alloca i32, align 4
  %2 = alloca [100 x %struct.stu], align 16
  %3 = alloca i32, align 4
  %4 = alloca i32, align 4
  %5 = alloca i32, align 4
  %6 = alloca i32, align 4
  %7 = alloca i32, align 4
  store i32 0, i32* %1, align 4
  %8 = call i32 (i8*, ...) @__isoc99_scanf(i8* getelementptr inbounds ([3 x i8], [3 x i8]* @.str, i64 0, i64 0), i32* %3)
  store i32 0, i32* %4, align 4
  br label %9

9:                                                ; preds = %172, %0
  %10 = load i32, i32* %4, align 4
  %11 = load i32, i32* %3, align 4
  %12 = icmp slt i32 %10, %11
  br i1 %12, label %13, label %175

13:                                               ; preds = %9
  %14 = load i32, i32* %4, align 4
  %15 = sext i32 %14 to i64
  %16 = getelementptr inbounds [100 x %struct.stu], [100 x %struct.stu]* %2, i64 0, i64 %15
  %17 = getelementptr inbounds %struct.stu, %struct.stu* %16, i32 0, i32 0
  %18 = getelementptr inbounds [21 x i8], [21 x i8]* %17, i64 0, i64 0
  %19 = load i32, i32* %4, align 4
  %20 = sext i32 %19 to i64
  %21 = getelementptr inbounds [100 x %struct.stu], [100 x %struct.stu]* %2, i64 0, i64 %20
  %22 = getelementptr inbounds %struct.stu, %struct.stu* %21, i32 0, i32 1
  %23 = getelementptr inbounds [2 x i32], [2 x i32]* %22, i64 0, i64 0
  %24 = load i32, i32* %4, align 4
  %25 = sext i32 %24 to i64
  %26 = getelementptr inbounds [100 x %struct.stu], [100 x %struct.stu]* %2, i64 0, i64 %25
  %27 = getelementptr inbounds %struct.stu, %struct.stu* %26, i32 0, i32 1
  %28 = getelementptr inbounds [2 x i32], [2 x i32]* %27, i64 0, i64 1
  %29 = load i32, i32* %4, align 4
  %30 = sext i32 %29 to i64
  %31 = getelementptr inbounds [100 x %struct.stu], [100 x %struct.stu]* %2, i64 0, i64 %30
  %32 = getelementptr inbounds %struct.stu, %struct.stu* %31, i32 0, i32 2
  %33 = load i32, i32* %4, align 4
  %34 = sext i32 %33 to i64
  %35 = getelementptr inbounds [100 x %struct.stu], [100 x %struct.stu]* %2, i64 0, i64 %34
  %36 = getelementptr inbounds %struct.stu, %struct.stu* %35, i32 0, i32 3
  %37 = load i32, i32* %4, align 4
  %38 = sext i32 %37 to i64
  %39 = getelementptr inbounds [100 x %struct.stu], [100 x %struct.stu]* %2, i64 0, i64 %38
  %40 = getelementptr inbounds %struct.stu, %struct.stu* %39, i32 0, i32 4
  %41 = call i32 (i8*, ...) @__isoc99_scanf(i8* getelementptr inbounds ([16 x i8], [16 x i8]* @.str.1, i64 0, i64 0), i8* %18, i32* %23, i32* %28, i8* %32, i8* %36, i32* %40)
  %42 = load i32, i32* %4, align 4
  %43 = sext i32 %42 to i64
  %44 = getelementptr inbounds [100 x %struct.stu], [100 x %struct.stu]* %2, i64 0, i64 %43
  %45 = getelementptr inbounds %struct.stu, %struct.stu* %44, i32 0, i32 5
  store i32 0, i32* %45, align 4
  %46 = load i32, i32* %4, align 4
  %47 = sext i32 %46 to i64
  %48 = getelementptr inbounds [100 x %struct.stu], [100 x %struct.stu]* %2, i64 0, i64 %47
  %49 = getelementptr inbounds %struct.stu, %struct.stu* %48, i32 0, i32 1
  %50 = getelementptr inbounds [2 x i32], [2 x i32]* %49, i64 0, i64 0
  %51 = load i32, i32* %50, align 4
  %52 = icmp sgt i32 %51, 80
  br i1 %52, label %53, label %71

53:                                               ; preds = %13
  %54 = load i32, i32* %4, align 4
  %55 = sext i32 %54 to i64
  %56 = getelementptr inbounds [100 x %struct.stu], [100 x %struct.stu]* %2, i64 0, i64 %55
  %57 = getelementptr inbounds %struct.stu, %struct.stu* %56, i32 0, i32 4
  %58 = load i32, i32* %57, align 4
  %59 = icmp sge i32 %58, 1
  br i1 %59, label %60, label %71

60:                                               ; preds = %53
  %61 = load i32, i32* %4, align 4
  %62 = sext i32 %61 to i64
  %63 = getelementptr inbounds [100 x %struct.stu], [100 x %struct.stu]* %2, i64 0, i64 %62
  %64 = getelementptr inbounds %struct.stu, %struct.stu* %63, i32 0, i32 5
  %65 = load i32, i32* %64, align 4
  %66 = add nsw i32 %65, 8000
  %67 = load i32, i32* %4, align 4
  %68 = sext i32 %67 to i64
  %69 = getelementptr inbounds [100 x %struct.stu], [100 x %struct.stu]* %2, i64 0, i64 %68
  %70 = getelementptr inbounds %struct.stu, %struct.stu* %69, i32 0, i32 5
  store i32 %66, i32* %70, align 4
  br label %71

71:                                               ; preds = %60, %53, %13
  %72 = load i32, i32* %4, align 4
  %73 = sext i32 %72 to i64
  %74 = getelementptr inbounds [100 x %struct.stu], [100 x %struct.stu]* %2, i64 0, i64 %73
  %75 = getelementptr inbounds %struct.stu, %struct.stu* %74, i32 0, i32 1
  %76 = getelementptr inbounds [2 x i32], [2 x i32]* %75, i64 0, i64 0
  %77 = load i32, i32* %76, align 4
  %78 = icmp sgt i32 %77, 85
  br i1 %78, label %79, label %98

79:                                               ; preds = %71
  %80 = load i32, i32* %4, align 4
  %81 = sext i32 %80 to i64
  %82 = getelementptr inbounds [100 x %struct.stu], [100 x %struct.stu]* %2, i64 0, i64 %81
  %83 = getelementptr inbounds %struct.stu, %struct.stu* %82, i32 0, i32 1
  %84 = getelementptr inbounds [2 x i32], [2 x i32]* %83, i64 0, i64 1
  %85 = load i32, i32* %84, align 4
  %86 = icmp sgt i32 %85, 80
  br i1 %86, label %87, label %98

87:                                               ; preds = %79
  %88 = load i32, i32* %4, align 4
  %89 = sext i32 %88 to i64
  %90 = getelementptr inbounds [100 x %struct.stu], [100 x %struct.stu]* %2, i64 0, i64 %89
  %91 = getelementptr inbounds %struct.stu, %struct.stu* %90, i32 0, i32 5
  %92 = load i32, i32* %91, align 4
  %93 = add nsw i32 %92, 4000
  %94 = load i32, i32* %4, align 4
  %95 = sext i32 %94 to i64
  %96 = getelementptr inbounds [100 x %struct.stu], [100 x %struct.stu]* %2, i64 0, i64 %95
  %97 = getelementptr inbounds %struct.stu, %struct.stu* %96, i32 0, i32 5
  store i32 %93, i32* %97, align 4
  br label %98

98:                                               ; preds = %87, %79, %71
  %99 = load i32, i32* %4, align 4
  %100 = sext i32 %99 to i64
  %101 = getelementptr inbounds [100 x %struct.stu], [100 x %struct.stu]* %2, i64 0, i64 %100
  %102 = getelementptr inbounds %struct.stu, %struct.stu* %101, i32 0, i32 1
  %103 = getelementptr inbounds [2 x i32], [2 x i32]* %102, i64 0, i64 0
  %104 = load i32, i32* %103, align 4
  %105 = icmp sgt i32 %104, 90
  br i1 %105, label %106, label %117

106:                                              ; preds = %98
  %107 = load i32, i32* %4, align 4
  %108 = sext i32 %107 to i64
  %109 = getelementptr inbounds [100 x %struct.stu], [100 x %struct.stu]* %2, i64 0, i64 %108
  %110 = getelementptr inbounds %struct.stu, %struct.stu* %109, i32 0, i32 5
  %111 = load i32, i32* %110, align 4
  %112 = add nsw i32 %111, 2000
  %113 = load i32, i32* %4, align 4
  %114 = sext i32 %113 to i64
  %115 = getelementptr inbounds [100 x %struct.stu], [100 x %struct.stu]* %2, i64 0, i64 %114
  %116 = getelementptr inbounds %struct.stu, %struct.stu* %115, i32 0, i32 5
  store i32 %112, i32* %116, align 4
  br label %117

117:                                              ; preds = %106, %98
  %118 = load i32, i32* %4, align 4
  %119 = sext i32 %118 to i64
  %120 = getelementptr inbounds [100 x %struct.stu], [100 x %struct.stu]* %2, i64 0, i64 %119
  %121 = getelementptr inbounds %struct.stu, %struct.stu* %120, i32 0, i32 1
  %122 = getelementptr inbounds [2 x i32], [2 x i32]* %121, i64 0, i64 0
  %123 = load i32, i32* %122, align 4
  %124 = icmp sgt i32 %123, 85
  br i1 %124, label %125, label %144

125:                                              ; preds = %117
  %126 = load i32, i32* %4, align 4
  %127 = sext i32 %126 to i64
  %128 = getelementptr inbounds [100 x %struct.stu], [100 x %struct.stu]* %2, i64 0, i64 %127
  %129 = getelementptr inbounds %struct.stu, %struct.stu* %128, i32 0, i32 3
  %130 = load i8, i8* %129, align 1
  %131 = sext i8 %130 to i32
  %132 = icmp eq i32 %131, 89
  br i1 %132, label %133, label %144

133:                                              ; preds = %125
  %134 = load i32, i32* %4, align 4
  %135 = sext i32 %134 to i64
  %136 = getelementptr inbounds [100 x %struct.stu], [100 x %struct.stu]* %2, i64 0, i64 %135
  %137 = getelementptr inbounds %struct.stu, %struct.stu* %136, i32 0, i32 5
  %138 = load i32, i32* %137, align 4
  %139 = add nsw i32 %138, 1000
  %140 = load i32, i32* %4, align 4
  %141 = sext i32 %140 to i64
  %142 = getelementptr inbounds [100 x %struct.stu], [100 x %struct.stu]* %2, i64 0, i64 %141
  %143 = getelementptr inbounds %struct.stu, %struct.stu* %142, i32 0, i32 5
  store i32 %139, i32* %143, align 4
  br label %144

144:                                              ; preds = %133, %125, %117
  %145 = load i32, i32* %4, align 4
  %146 = sext i32 %145 to i64
  %147 = getelementptr inbounds [100 x %struct.stu], [100 x %struct.stu]* %2, i64 0, i64 %146
  %148 = getelementptr inbounds %struct.stu, %struct.stu* %147, i32 0, i32 1
  %149 = getelementptr inbounds [2 x i32], [2 x i32]* %148, i64 0, i64 1
  %150 = load i32, i32* %149, align 4
  %151 = icmp sgt i32 %150, 80
  br i1 %151, label %152, label %171

152:                                              ; preds = %144
  %153 = load i32, i32* %4, align 4
  %154 = sext i32 %153 to i64
  %155 = getelementptr inbounds [100 x %struct.stu], [100 x %struct.stu]* %2, i64 0, i64 %154
  %156 = getelementptr inbounds %struct.stu, %struct.stu* %155, i32 0, i32 2
  %157 = load i8, i8* %156, align 4
  %158 = sext i8 %157 to i32
  %159 = icmp eq i32 %158, 89
  br i1 %159, label %160, label %171

160:                                              ; preds = %152
  %161 = load i32, i32* %4, align 4
  %162 = sext i32 %161 to i64
  %163 = getelementptr inbounds [100 x %struct.stu], [100 x %struct.stu]* %2, i64 0, i64 %162
  %164 = getelementptr inbounds %struct.stu, %struct.stu* %163, i32 0, i32 5
  %165 = load i32, i32* %164, align 4
  %166 = add nsw i32 %165, 850
  %167 = load i32, i32* %4, align 4
  %168 = sext i32 %167 to i64
  %169 = getelementptr inbounds [100 x %struct.stu], [100 x %struct.stu]* %2, i64 0, i64 %168
  %170 = getelementptr inbounds %struct.stu, %struct.stu* %169, i32 0, i32 5
  store i32 %166, i32* %170, align 4
  br label %171

171:                                              ; preds = %160, %152, %144
  br label %172

172:                                              ; preds = %171
  %173 = load i32, i32* %4, align 4
  %174 = add nsw i32 %173, 1
  store i32 %174, i32* %4, align 4
  br label %9

175:                                              ; preds = %9
  store i32 0, i32* %6, align 4
  %176 = getelementptr inbounds [100 x %struct.stu], [100 x %struct.stu]* %2, i64 0, i64 0
  %177 = getelementptr inbounds %struct.stu, %struct.stu* %176, i32 0, i32 5
  %178 = load i32, i32* %177, align 8
  store i32 %178, i32* %7, align 4
  store i32 1, i32* %4, align 4
  br label %179

179:                                              ; preds = %205, %175
  %180 = load i32, i32* %4, align 4
  %181 = load i32, i32* %3, align 4
  %182 = icmp slt i32 %180, %181
  br i1 %182, label %183, label %208

183:                                              ; preds = %179
  %184 = load i32, i32* %6, align 4
  %185 = sext i32 %184 to i64
  %186 = getelementptr inbounds [100 x %struct.stu], [100 x %struct.stu]* %2, i64 0, i64 %185
  %187 = getelementptr inbounds %struct.stu, %struct.stu* %186, i32 0, i32 5
  %188 = load i32, i32* %187, align 4
  %189 = load i32, i32* %4, align 4
  %190 = sext i32 %189 to i64
  %191 = getelementptr inbounds [100 x %struct.stu], [100 x %struct.stu]* %2, i64 0, i64 %190
  %192 = getelementptr inbounds %struct.stu, %struct.stu* %191, i32 0, i32 5
  %193 = load i32, i32* %192, align 4
  %194 = icmp slt i32 %188, %193
  br i1 %194, label %195, label %197

195:                                              ; preds = %183
  %196 = load i32, i32* %4, align 4
  store i32 %196, i32* %6, align 4
  br label %197

197:                                              ; preds = %195, %183
  %198 = load i32, i32* %7, align 4
  %199 = load i32, i32* %4, align 4
  %200 = sext i32 %199 to i64
  %201 = getelementptr inbounds [100 x %struct.stu], [100 x %struct.stu]* %2, i64 0, i64 %200
  %202 = getelementptr inbounds %struct.stu, %struct.stu* %201, i32 0, i32 5
  %203 = load i32, i32* %202, align 4
  %204 = add nsw i32 %198, %203
  store i32 %204, i32* %7, align 4
  br label %205

205:                                              ; preds = %197
  %206 = load i32, i32* %4, align 4
  %207 = add nsw i32 %206, 1
  store i32 %207, i32* %4, align 4
  br label %179

208:                                              ; preds = %179
  %209 = load i32, i32* %6, align 4
  %210 = sext i32 %209 to i64
  %211 = getelementptr inbounds [100 x %struct.stu], [100 x %struct.stu]* %2, i64 0, i64 %210
  %212 = getelementptr inbounds %struct.stu, %struct.stu* %211, i32 0, i32 0
  %213 = getelementptr inbounds [21 x i8], [21 x i8]* %212, i64 0, i64 0
  %214 = load i32, i32* %6, align 4
  %215 = sext i32 %214 to i64
  %216 = getelementptr inbounds [100 x %struct.stu], [100 x %struct.stu]* %2, i64 0, i64 %215
  %217 = getelementptr inbounds %struct.stu, %struct.stu* %216, i32 0, i32 5
  %218 = load i32, i32* %217, align 4
  %219 = load i32, i32* %7, align 4
  %220 = call i32 (i8*, ...) @printf(i8* getelementptr inbounds ([10 x i8], [10 x i8]* @.str.2, i64 0, i64 0), i8* %213, i32 %218, i32 %219)
  ret i32 0
}

declare dso_local i32 @__isoc99_scanf(i8*, ...) #1

declare dso_local i32 @printf(i8*, ...) #1


!llvm.module.flags = !{!0}
!llvm.ident = !{!1}

!0 = !{i32 1, !"wchar_size", i32 4}
!1 = !{!"clang version 10.0.0-4ubuntu1 "}
